target datalayout = "e-m:e-p270:32:32-p271:32:32-p272:64:64-i64:64-i128:128-f80:128-n8:16:32:64-S128"
target triple = "x86_64-pc-linux-gnu"

@.str.63 = private unnamed_addr constant [27 x i8] c"too many results to unpack\00", align 1

; Function Attrs: nounwind uwtable
define internal i32 @luaB_unpack(ptr noundef %0) #0 {
  %2 = alloca i32, align 4
  %3 = alloca ptr, align 8
  %4 = alloca i32, align 4
  %5 = alloca i32, align 4
  %6 = alloca i32, align 4
  %7 = alloca i32, align 4
  store ptr %0, ptr %3, align 8, !tbaa !4
  call void @llvm.lifetime.start.p0(i64 4, ptr %4) #5
  call void @llvm.lifetime.start.p0(i64 4, ptr %5) #5
  call void @llvm.lifetime.start.p0(i64 4, ptr %6) #5
  %8 = load ptr, ptr %3, align 8, !tbaa !4
  call void @luaL_checktype(ptr noundef %8, i32 noundef 1, i32 noundef 5)
  %9 = load ptr, ptr %3, align 8, !tbaa !4
  %10 = call i64 @luaL_optinteger(ptr noundef %9, i32 noundef 2, i64 noundef 1)
  %11 = trunc i64 %10 to i32
  store i32 %11, ptr %4, align 4, !tbaa !12
  %12 = load ptr, ptr %3, align 8, !tbaa !4
  %13 = call i32 @lua_type(ptr noundef %12, i32 noundef 3)
  %14 = icmp sle i32 %13, 0
  br i1 %14, label %15, label %19

15:                                               ; preds = %1
  %16 = load ptr, ptr %3, align 8, !tbaa !4
  %17 = call i64 @lua_objlen(ptr noundef %16, i32 noundef 1)
  %18 = trunc i64 %17 to i32
  br label %23

19:                                               ; preds = %1
  %20 = load ptr, ptr %3, align 8, !tbaa !4
  %21 = call i64 @luaL_checkinteger(ptr noundef %20, i32 noundef 3)
  %22 = trunc i64 %21 to i32
  br label %23

23:                                               ; preds = %19, %15
  %24 = phi i32 [ %18, %15 ], [ %22, %19 ]
  store i32 %24, ptr %5, align 4, !tbaa !12
  %25 = load i32, ptr %4, align 4, !tbaa !12
  %26 = load i32, ptr %5, align 4, !tbaa !12
  %27 = icmp sgt i32 %25, %26
  br i1 %27, label %28, label %29

28:                                               ; preds = %23
  store i32 0, ptr %2, align 4
  store i32 1, ptr %7, align 4
  br label %57

29:                                               ; preds = %23
  %30 = load i32, ptr %5, align 4, !tbaa !12
  %31 = load i32, ptr %4, align 4, !tbaa !12
  %32 = sub nsw i32 %30, %31
  %33 = add nsw i32 %32, 1
  store i32 %33, ptr %6, align 4, !tbaa !12
  %34 = load i32, ptr %6, align 4, !tbaa !12
  %35 = icmp sle i32 %34, 0
  br i1 %35, label %41, label %36

36:                                               ; preds = %29
  %37 = load ptr, ptr %3, align 8, !tbaa !4
  %38 = load i32, ptr %6, align 4, !tbaa !12
  %39 = call i32 @lua_checkstack(ptr noundef %37, i32 noundef %38)
  %40 = icmp ne i32 %39, 0
  br i1 %40, label %44, label %41

41:                                               ; preds = %36, %29
  %42 = load ptr, ptr %3, align 8, !tbaa !4
  %43 = call i32 (ptr, ptr, ...) @luaL_error(ptr noundef %42, ptr noundef @.str.63)
  store i32 %43, ptr %2, align 4
  store i32 1, ptr %7, align 4
  br label %57

44:                                               ; preds = %36
  %45 = load ptr, ptr %3, align 8, !tbaa !4
  %46 = load i32, ptr %4, align 4, !tbaa !12
  call void @lua_rawgeti(ptr noundef %45, i32 noundef 1, i32 noundef %46)
  br label %47

47:                                               ; preds = %52, %44
  %48 = load i32, ptr %4, align 4, !tbaa !12
  %49 = add nsw i32 %48, 1
  store i32 %49, ptr %4, align 4, !tbaa !12
  %50 = load i32, ptr %5, align 4, !tbaa !12
  %51 = icmp slt i32 %48, %50
  br i1 %51, label %52, label %55

52:                                               ; preds = %47
  %53 = load ptr, ptr %3, align 8, !tbaa !4
  %54 = load i32, ptr %4, align 4, !tbaa !12
  call void @lua_rawgeti(ptr noundef %53, i32 noundef 1, i32 noundef %54)
  br label %47, !llvm.loop !26

55:                                               ; preds = %47
  %56 = load i32, ptr %6, align 4, !tbaa !12
  store i32 %56, ptr %2, align 4
  store i32 1, ptr %7, align 4
  br label %57

57:                                               ; preds = %55, %41, %28
  call void @llvm.lifetime.end.p0(i64 4, ptr %6) #5
  call void @llvm.lifetime.end.p0(i64 4, ptr %5) #5
  call void @llvm.lifetime.end.p0(i64 4, ptr %4) #5
  %58 = load i32, ptr %2, align 4
  ret i32 %58
}