; Function Attrs: nounwind uwtable
define internal i32 @luaB_unpack(ptr noundef %0) #0 {
  tail call void @luaL_checktype(ptr noundef %0, i32 noundef 1, i32 noundef 5) #8
  %2 = tail call i64 @luaL_optinteger(ptr noundef %0, i32 noundef 2, i64 noundef 1) #8
  %3 = trunc i64 %2 to i32
  %4 = tail call i32 @lua_type(ptr noundef %0, i32 noundef 3) #8
  %5 = icmp slt i32 %4, 1
  br i1 %5, label %6, label %8

6:                                                ; preds = %1
  %7 = tail call i64 @lua_objlen(ptr noundef %0, i32 noundef 1) #8
  br label %10

8:                                                ; preds = %1
  %9 = tail call i64 @luaL_checkinteger(ptr noundef %0, i32 noundef 3) #8
  br label %10

10:                                               ; preds = %8, %6
  %.in = phi i64 [ %7, %6 ], [ %9, %8 ]
  %11 = trunc i64 %.in to i32
  %12 = icmp sgt i32 %3, %11
  br i1 %12, label %.loopexit, label %13

13:                                               ; preds = %10
  %14 = sub nsw i32 %11, %3
  %15 = add nsw i32 %14, 1
  %16 = tail call i32 @lua_checkstack(ptr noundef %0, i32 noundef %15) #8
  %.not = icmp eq i32 %16, 0
  br i1 %.not, label %17, label %19

17:                                               ; preds = %13
  %18 = tail call i32 (ptr, ptr, ...) @luaL_error(ptr noundef %0, ptr noundef nonnull @.str.63) #8
  br label %.loopexit

19:                                               ; preds = %13
  tail call void @lua_rawgeti(ptr noundef %0, i32 noundef 1, i32 noundef %3) #8
  %20 = icmp slt i32 %3, %11
  br i1 %20, label %.lr.ph, label %.loopexit

.lr.ph:                                           ; preds = %19, %.lr.ph
  %.02024 = phi i32 [ %21, %.lr.ph ], [ %3, %19 ]
  %21 = add nsw i32 %.02024, 1
  tail call void @lua_rawgeti(ptr noundef %0, i32 noundef 1, i32 noundef %21) #8
  %exitcond.not = icmp eq i32 %21, %11
  br i1 %exitcond.not, label %.loopexit, label %.lr.ph, !llvm.loop !23

.loopexit:                                        ; preds = %.lr.ph, %19, %10, %17
  %.0 = phi i32 [ %18, %17 ], [ 0, %10 ], [ %15, %19 ], [ %15, %.lr.ph ]
  ret i32 %.0
}